target datalayout = "e-m:e-p270:32:32-p271:32:32-p272:64:64-i64:64-i128:128-f80:128-n8:16:32:64-S128"
target triple = "x86_64-pc-linux-gnu"

%struct.redisServer = type { i32, i64, ptr, ptr, ptr, i32, i32, i32, i32, i32, ptr, ptr, ptr, ptr, ptr, i32, i32, i32, i32, i64, i32, i32, i32, i32, ptr, i32, i32, [41 x i8], i32, i64, i32, i32, i32, ptr, ptr, i32, i32, i64, ptr, ptr, ptr, ptr, [2 x i32], i32, i32, i32, i32, i32, i32, [16 x ptr], i32, ptr, ptr, i32, [8 x %struct.connListener], i32, %struct.connListener, ptr, ptr, ptr, ptr, ptr, ptr, ptr, ptr, ptr, ptr, i32, ptr, i32, ptr, [3 x %struct.pause_event], [256 x i8], ptr, i64, i32, i32, [128 x i32], i32, i32, i64, i32, i32, i32, i32, i32, i64, i64, i64, i64, i64, i64, i64, i64, i64, i64, double, i64, i64, i64, i64, i64, i64, i64, i64, i64, i64, i64, i64, i64, i64, i64, i64, i64, i64, i64, i64, i64, double, i64, i64, i64, i64, i64, ptr, i64, i64, i64, %struct.malloc_stats, i64, i64, i64, i64, i64, i64, i64, i64, i64, i64, i64, i64, double, [4 x i64], i64, i64, i64, i64, [128 x i64], [128 x i64], i64, i64, [7 x %struct.anon], i64, i64, i64, i64, i64, i64, [4 x %struct.durationStats], i32, i32, i32, i32, i32, i32, i32, i32, i32, i32, i32, i32, i64, i32, i32, i32, i32, i64, i64, i32, i32, i32, i32, i32, ptr, [3 x %struct.clientBufferLimitsConfig], i32, i32, i32, ptr, i32, i32, i32, i32, i32, i32, ptr, ptr, i32, i32, i64, i64, i64, i64, i64, i32, i32, ptr, i32, i32, i64, i64, i64, i64, i64, i32, i32, i64, i32, i32, i32, i32, i32, i32, i32, i32, ptr, i32, i64, i64, i64, i64, i32, ptr, i32, ptr, i32, i32, i32, i64, i64, i64, i64, i32, i32, i32, i32, i32, i32, ptr, i32, i32, ptr, i32, i32, i32, [2 x i32], i32, %struct.redisOpArray, i32, ptr, i32, ptr, i32, i32, i32, i32, i32, i32, i32, [41 x i8], [41 x i8], i64, i64, i64, i64, i32, i32, ptr, i64, i64, %struct.replDataBuf, i64, i64, i32, i32, i32, i32, i32, i32, i32, i32, i32, i64, ptr, i64, ptr, ptr, ptr, i32, i32, ptr, ptr, i32, i32, i32, i64, i64, i64, i64, ptr, ptr, i32, ptr, i64, i32, i32, i32, i64, i32, i32, i32, i32, ptr, i32, i32, [41 x i8], i64, i32, ptr, i32, i32, i64, i64, i32, i32, i32, i32, i32, i64, [3 x i32], i32, i32, i32, [10 x i32], ptr, ptr, i32, i64, ptr, ptr, i32, i32, i32, i32, i64, i64, i64, i64, i64, i64, i64, i64, i64, i64, i32, i32, i64, i64, i32, i64, i64, i64, i64, i64, ptr, ptr, i32, ptr, i32, i32, i32, i32, i64, i64, ptr, ptr, i32, i32, i32, i32, i32, ptr, ptr, ptr, i32, i32, i32, i32, i32, i32, i32, i64, i32, i32, i64, i32, i32, i32, i32, i32, i32, i32, i64, ptr, ptr, i64, ptr, i32, %struct.aclInfo, i32, i64, i32, i32, i32, %struct.redisTLSContextConfig, ptr, ptr, ptr, ptr, ptr, i64, i32, ptr, i32, i32, i32, i64, i32, ptr }
%struct.connListener = type { [16 x i32], i32, ptr, i32, i32, ptr, ptr }
%struct.pause_event = type { i32, i64 }
%struct.malloc_stats = type { i64, i64, i64, i64, i64, i64, i64, i64, i64, i64, i64 }
%struct.anon = type { i64, i64, [16 x i64], i32 }
%struct.durationStats = type { i64, i64, i64 }
%struct.clientBufferLimitsConfig = type { i64, i64, i64 }
%struct.redisOpArray = type { ptr, i32, i32 }
%struct.replDataBuf = type { ptr, i64, i64, i64, i64 }
%struct.aclInfo = type { i64, i64, i64, i64 }
%struct.redisTLSContextConfig = type { ptr, ptr, ptr, ptr, ptr, ptr, ptr, ptr, ptr, ptr, ptr, ptr, i32, i32, i32, i32 }

@server = external global %struct.redisServer, align 8
@.str.39 = private unnamed_addr constant [12 x i8] c"temp-%d.rdb\00", align 1
@.str.40 = private unnamed_addr constant [85 x i8] c"Error moving temp DB file %s on the final destination %s (in server root dir %s): %s\00", align 1
@.str.41 = private unnamed_addr constant [8 x i8] c"unknown\00", align 1
@.str.42 = private unnamed_addr constant [46 x i8] c"Failed to fsync directory while saving DB: %s\00", align 1
@.str.43 = private unnamed_addr constant [17 x i8] c"DB saved on disk\00", align 1

; Function Attrs: nounwind uwtable
define dso_local void @stopSaving(i32 noundef %0) #0 {
  %2 = alloca i32, align 4
  store i32 %0, ptr %2, align 4, !tbaa !5
  %3 = load i32, ptr %2, align 4, !tbaa !5
  %4 = icmp ne i32 %3, 0
  %5 = select i1 %4, i32 3, i32 4
  call void @moduleFireServerEvent(i64 noundef 1, i32 noundef %5, ptr noundef null)
  ret void
}

; Function Attrs: nounwind uwtable
define dso_local void @startSaving(i32 noundef %0) #0 {
  %2 = alloca i32, align 4
  %3 = alloca i32, align 4
  store i32 %0, ptr %2, align 4, !tbaa !5
  call void @llvm.lifetime.start.p0(i64 4, ptr %3) #15
  %4 = load i32, ptr %2, align 4, !tbaa !5
  %5 = and i32 %4, 1
  %6 = icmp ne i32 %5, 0
  br i1 %6, label %7, label %12

7:                                                ; preds = %1
  %8 = call i32 @getpid() #15
  %9 = load i32, ptr @server, align 8, !tbaa !207
  %10 = icmp ne i32 %8, %9
  br i1 %10, label %11, label %12

11:                                               ; preds = %7
  store i32 1, ptr %3, align 4, !tbaa !5
  br label %25

12:                                               ; preds = %7, %1
  %13 = load i32, ptr %2, align 4, !tbaa !5
  %14 = and i32 %13, 1
  %15 = icmp ne i32 %14, 0
  br i1 %15, label %16, label %17

16:                                               ; preds = %12
  store i32 5, ptr %3, align 4, !tbaa !5
  br label %24

17:                                               ; preds = %12
  %18 = call i32 @getpid() #15
  %19 = load i32, ptr @server, align 8, !tbaa !207
  %20 = icmp ne i32 %18, %19
  br i1 %20, label %21, label %22

21:                                               ; preds = %17
  store i32 0, ptr %3, align 4, !tbaa !5
  br label %23

22:                                               ; preds = %17
  store i32 2, ptr %3, align 4, !tbaa !5
  br label %23

23:                                               ; preds = %22, %21
  br label %24

24:                                               ; preds = %23, %16
  br label %25

25:                                               ; preds = %24, %11
  %26 = load i32, ptr %3, align 4, !tbaa !5
  call void @moduleFireServerEvent(i64 noundef 1, i32 noundef %26, ptr noundef null)
  call void @llvm.lifetime.end.p0(i64 4, ptr %3) #15
  ret void
}

; Function Attrs: nounwind uwtable
define dso_local i32 @rdbSave(i32 noundef %0, ptr noundef %1, ptr noundef %2, i32 noundef %3) #0 {
  %5 = alloca i32, align 4
  %6 = alloca i32, align 4
  %7 = alloca ptr, align 8
  %8 = alloca ptr, align 8
  %9 = alloca i32, align 4
  %10 = alloca [256 x i8], align 16
  %11 = alloca [4096 x i8], align 16
  %12 = alloca i32, align 4
  %13 = alloca ptr, align 8
  %14 = alloca ptr, align 8
  store i32 %0, ptr %6, align 4, !tbaa !5
  store ptr %1, ptr %7, align 8, !tbaa !9
  store ptr %2, ptr %8, align 8, !tbaa !179
  store i32 %3, ptr %9, align 4, !tbaa !5
  call void @llvm.lifetime.start.p0(i64 256, ptr %10) #15
  call void @llvm.lifetime.start.p0(i64 4096, ptr %11) #15
  %15 = load i32, ptr %9, align 4, !tbaa !5
  call void @startSaving(i32 noundef %15)
  %16 = getelementptr inbounds [256 x i8], ptr %10, i64 0, i64 0
  %17 = call i32 @getpid() #15
  %18 = call i32 (ptr, i64, ptr, ...) @snprintf(ptr noundef %16, i64 noundef 256, ptr noundef @.str.39, i32 noundef %17) #15
  %19 = load i32, ptr %6, align 4, !tbaa !5
  %20 = getelementptr inbounds [256 x i8], ptr %10, i64 0, i64 0
  %21 = load ptr, ptr %8, align 8, !tbaa !179
  %22 = load i32, ptr %9, align 4, !tbaa !5
  %23 = call i32 @rdbSaveInternal(i32 noundef %19, ptr noundef %20, ptr noundef %21, i32 noundef %22)
  %24 = icmp ne i32 %23, 0
  br i1 %24, label %25, label %26

25:                                               ; preds = %4
  call void @stopSaving(i32 noundef 0)
  store i32 -1, ptr %5, align 4
  store i32 1, ptr %12, align 4
  br label %80

26:                                               ; preds = %4
  %27 = getelementptr inbounds [256 x i8], ptr %10, i64 0, i64 0
  %28 = load ptr, ptr %7, align 8, !tbaa !9
  %29 = call i32 @rename(ptr noundef %27, ptr noundef %28) #15
  %30 = icmp eq i32 %29, -1
  br i1 %30, label %31, label %56

31:                                               ; preds = %26
  call void @llvm.lifetime.start.p0(i64 8, ptr %13) #15
  %32 = call ptr @__errno_location() #19
  %33 = load i32, ptr %32, align 4, !tbaa !5
  %34 = call ptr @strerror(i32 noundef %33) #15
  store ptr %34, ptr %13, align 8, !tbaa !9
  call void @llvm.lifetime.start.p0(i64 8, ptr %14) #15
  %35 = getelementptr inbounds [4096 x i8], ptr %11, i64 0, i64 0
  %36 = call ptr @getcwd(ptr noundef %35, i64 noundef 4096) #15
  store ptr %36, ptr %14, align 8, !tbaa !9
  br label %37

37:                                               ; preds = %31
  %38 = load i32, ptr getelementptr inbounds nuw (%struct.redisServer, ptr @server, i32 0, i32 159), align 8, !tbaa !52
  %39 = icmp slt i32 3, %38
  br i1 %39, label %40, label %41

40:                                               ; preds = %37
  br label %53

41:                                               ; preds = %37
  %42 = getelementptr inbounds [256 x i8], ptr %10, i64 0, i64 0
  %43 = load ptr, ptr %7, align 8, !tbaa !9
  %44 = load ptr, ptr %14, align 8, !tbaa !9
  %45 = icmp ne ptr %44, null
  br i1 %45, label %46, label %48

46:                                               ; preds = %41
  %47 = load ptr, ptr %14, align 8, !tbaa !9
  br label %49

48:                                               ; preds = %41
  br label %49

49:                                               ; preds = %48, %46
  %50 = phi ptr [ %47, %46 ], [ @.str.41, %48 ]
  %51 = load ptr, ptr %13, align 8, !tbaa !9
  call void (i32, ptr, ...) @_serverLog(i32 noundef 3, ptr noundef @.str.40, ptr noundef %42, ptr noundef %43, ptr noundef %50, ptr noundef %51)
  br label %52

52:                                               ; preds = %49
  br label %53

53:                                               ; preds = %52, %40
  %54 = getelementptr inbounds [256 x i8], ptr %10, i64 0, i64 0
  %55 = call i32 @unlink(ptr noundef %54) #15
  call void @stopSaving(i32 noundef 0)
  store i32 -1, ptr %5, align 4
  store i32 1, ptr %12, align 4
  call void @llvm.lifetime.end.p0(i64 8, ptr %14) #15
  call void @llvm.lifetime.end.p0(i64 8, ptr %13) #15
  br label %80

56:                                               ; preds = %26
  %57 = load ptr, ptr %7, align 8, !tbaa !9
  %58 = call i32 @fsyncFileDir(ptr noundef %57)
  %59 = icmp ne i32 %58, 0
  br i1 %59, label %60, label %71

60:                                               ; preds = %56
  br label %61

61:                                               ; preds = %60
  %62 = load i32, ptr getelementptr inbounds nuw (%struct.redisServer, ptr @server, i32 0, i32 159), align 8, !tbaa !52
  %63 = icmp slt i32 3, %62
  br i1 %63, label %64, label %65

64:                                               ; preds = %61
  br label %70

65:                                               ; preds = %61
  %66 = call ptr @__errno_location() #19
  %67 = load i32, ptr %66, align 4, !tbaa !5
  %68 = call ptr @strerror(i32 noundef %67) #15
  call void (i32, ptr, ...) @_serverLog(i32 noundef 3, ptr noundef @.str.42, ptr noundef %68)
  br label %69

69:                                               ; preds = %65
  br label %70

70:                                               ; preds = %69, %64
  call void @stopSaving(i32 noundef 0)
  store i32 -1, ptr %5, align 4
  store i32 1, ptr %12, align 4
  br label %80

71:                                               ; preds = %56
  br label %72

72:                                               ; preds = %71
  %73 = load i32, ptr getelementptr inbounds nuw (%struct.redisServer, ptr @server, i32 0, i32 159), align 8, !tbaa !52
  %74 = icmp slt i32 2, %73
  br i1 %74, label %75, label %76

75:                                               ; preds = %72
  br label %78

76:                                               ; preds = %72
  call void (i32, ptr, ...) @_serverLog(i32 noundef 2, ptr noundef @.str.43)
  br label %77

77:                                               ; preds = %76
  br label %78

78:                                               ; preds = %77, %75
  store i64 0, ptr getelementptr inbounds nuw (%struct.redisServer, ptr @server, i32 0, i32 227), align 8, !tbaa !211
  %79 = call i64 @time(ptr noundef null) #15
  store i64 %79, ptr getelementptr inbounds nuw (%struct.redisServer, ptr @server, i32 0, i32 238), align 8, !tbaa !212
  store i32 0, ptr getelementptr inbounds nuw (%struct.redisServer, ptr @server, i32 0, i32 244), align 8, !tbaa !213
  call void @stopSaving(i32 noundef 1)
  store i32 0, ptr %5, align 4
  store i32 1, ptr %12, align 4
  br label %80

80:                                               ; preds = %78, %70, %53, %25
  call void @llvm.lifetime.end.p0(i64 4096, ptr %11) #15
  call void @llvm.lifetime.end.p0(i64 256, ptr %10) #15
  %81 = load i32, ptr %5, align 4
  ret i32 %81
}