; Function Attrs: nounwind uwtable
define dso_local range(i32 -1, 1) i32 @rdbSave(i32 noundef %0, ptr noundef %1, ptr noundef captures(address_is_null) %2, i32 noundef %3) local_unnamed_addr #0 {
  %5 = alloca [256 x i8], align 16
  %6 = alloca [4096 x i8], align 16
  call void @llvm.lifetime.start.p0(i64 256, ptr nonnull %5) #23
  call void @llvm.lifetime.start.p0(i64 4096, ptr nonnull %6) #23
  %7 = and i32 %3, 1
  %.not.i = icmp eq i32 %7, 0
  %8 = tail call i32 @getpid() #23
  %9 = load i32, ptr @server, align 8, !tbaa !168
  %.not4.i = icmp eq i32 %8, %9
  %.mux.i = select i1 %.not4.i, i32 5, i32 1
  %..i = select i1 %.not4.i, i32 2, i32 0
  %.0.i = select i1 %.not.i, i32 %..i, i32 %.mux.i
  tail call void @moduleFireServerEvent(i64 noundef 1, i32 noundef %.0.i, ptr noundef null) #23
  %10 = tail call i32 @getpid() #23
  %11 = call i32 (ptr, i64, ptr, ...) @snprintf(ptr noundef nonnull dereferenceable(1) %5, i64 noundef 256, ptr noundef nonnull @.str.39, i32 noundef %10) #23
  %12 = call fastcc i32 @rdbSaveInternal(i32 noundef %0, ptr noundef nonnull %5, ptr noundef %2, i32 noundef %3)
  %.not = icmp eq i32 %12, 0
  br i1 %.not, label %13, label %41

13:                                               ; preds = %4
  %14 = call i32 @rename(ptr noundef nonnull %5, ptr noundef %1) #23
  %15 = icmp eq i32 %14, -1
  br i1 %15, label %16, label %27

16:                                               ; preds = %13
  %17 = tail call ptr @__errno_location() #28
  %18 = load i32, ptr %17, align 4, !tbaa !51
  %19 = call ptr @strerror(i32 noundef %18) #23
  %20 = call ptr @getcwd(ptr noundef nonnull %6, i64 noundef 4096) #23
  %21 = load i32, ptr getelementptr inbounds nuw (i8, ptr @server, i64 6288), align 8, !tbaa !50
  %22 = icmp sgt i32 %21, 3
  br i1 %22, label %25, label %23

23:                                               ; preds = %16
  %.not11 = icmp eq ptr %20, null
  %24 = select i1 %.not11, ptr @.str.41, ptr %20
  call void (i32, ptr, ...) @_serverLog(i32 noundef 3, ptr noundef nonnull @.str.40, ptr noundef nonnull %5, ptr noundef %1, ptr noundef nonnull %24, ptr noundef %19) #23
  br label %25

25:                                               ; preds = %16, %23
  %26 = call i32 @unlink(ptr noundef nonnull %5) #23
  br label %41

27:                                               ; preds = %13
  %28 = call i32 @fsyncFileDir(ptr noundef %1) #23
  %.not10 = icmp eq i32 %28, 0
  %29 = load i32, ptr getelementptr inbounds nuw (i8, ptr @server, i64 6288), align 8, !tbaa !50
  br i1 %.not10, label %36, label %30

30:                                               ; preds = %27
  %31 = icmp sgt i32 %29, 3
  br i1 %31, label %41, label %32

32:                                               ; preds = %30
  %33 = tail call ptr @__errno_location() #28
  %34 = load i32, ptr %33, align 4, !tbaa !51
  %35 = call ptr @strerror(i32 noundef %34) #23
  call void (i32, ptr, ...) @_serverLog(i32 noundef 3, ptr noundef nonnull @.str.42, ptr noundef %35) #23
  br label %41

36:                                               ; preds = %27
  %37 = icmp sgt i32 %29, 2
  br i1 %37, label %39, label %38

38:                                               ; preds = %36
  call void (i32, ptr, ...) @_serverLog(i32 noundef 2, ptr noundef nonnull @.str.43) #23
  br label %39

39:                                               ; preds = %36, %38
  store i64 0, ptr getelementptr inbounds nuw (i8, ptr @server, i64 6720), align 8, !tbaa !170
  %40 = call i64 @time(ptr noundef null) #23
  store i64 %40, ptr getelementptr inbounds nuw (i8, ptr @server, i64 6800), align 8, !tbaa !171
  store i32 0, ptr getelementptr inbounds nuw (i8, ptr @server, i64 6840), align 8, !tbaa !172
  br label %41

41:                                               ; preds = %32, %30, %4, %39, %25
  %.sink = phi i32 [ 3, %39 ], [ 4, %25 ], [ 4, %4 ], [ 4, %30 ], [ 4, %32 ]
  %.0 = phi i32 [ 0, %39 ], [ -1, %25 ], [ -1, %4 ], [ -1, %30 ], [ -1, %32 ]
  call void @moduleFireServerEvent(i64 noundef 1, i32 noundef %.sink, ptr noundef null) #23
  call void @llvm.lifetime.end.p0(i64 4096, ptr nonnull %6) #23
  call void @llvm.lifetime.end.p0(i64 256, ptr nonnull %5) #23
  ret i32 %.0
}